target datalayout = "e-m:e-p270:32:32-p271:32:32-p272:64:64-i64:64-i128:128-f80:128-n8:16:32:64-S128"
target triple = "x86_64-pc-linux-gnu"

%struct.dictDefragFunctions = type { ptr, ptr, ptr }
%struct.redisObject = type { i32, i32, ptr }
%struct.zset = type { ptr, ptr }
%struct.scanLaterZsetData = type { ptr }

@__const.scanLaterZset.defragfns = private unnamed_addr constant %struct.dictDefragFunctions { ptr @activeDefragAlloc, ptr null, ptr null }, align 8

; Function Attrs: nounwind uwtable
define dso_local void @scanLaterZset(ptr noundef %0, ptr noundef %1) #0 {
  %3 = alloca ptr, align 8
  %4 = alloca ptr, align 8
  %5 = alloca ptr, align 8
  %6 = alloca ptr, align 8
  %7 = alloca %struct.scanLaterZsetData, align 8
  %8 = alloca %struct.dictDefragFunctions, align 8
  store ptr %0, ptr %3, align 8, !tbaa !42
  store ptr %1, ptr %4, align 8, !tbaa !111
  %9 = load ptr, ptr %3, align 8, !tbaa !42
  %10 = load i32, ptr %9, align 8
  %11 = and i32 %10, 15
  %12 = icmp ne i32 %11, 3
  br i1 %12, label %19, label %13

13:                                               ; preds = %2
  %14 = load ptr, ptr %3, align 8, !tbaa !42
  %15 = load i32, ptr %14, align 8
  %16 = lshr i32 %15, 4
  %17 = and i32 %16, 15
  %18 = icmp ne i32 %17, 7
  br i1 %18, label %19, label %20

19:                                               ; preds = %13, %2
  br label %34

20:                                               ; preds = %13
  call void @llvm.lifetime.start.p0(i64 8, ptr %5) #10
  %21 = load ptr, ptr %3, align 8, !tbaa !42
  %22 = getelementptr inbounds nuw %struct.redisObject, ptr %21, i32 0, i32 2
  %23 = load ptr, ptr %22, align 8, !tbaa !47
  store ptr %23, ptr %5, align 8, !tbaa !73
  call void @llvm.lifetime.start.p0(i64 8, ptr %6) #10
  %24 = load ptr, ptr %5, align 8, !tbaa !73
  %25 = getelementptr inbounds nuw %struct.zset, ptr %24, i32 0, i32 0
  %26 = load ptr, ptr %25, align 8, !tbaa !77
  store ptr %26, ptr %6, align 8, !tbaa !53
  call void @llvm.lifetime.start.p0(i64 8, ptr %7) #10
  %27 = getelementptr inbounds nuw %struct.scanLaterZsetData, ptr %7, i32 0, i32 0
  %28 = load ptr, ptr %5, align 8, !tbaa !73
  store ptr %28, ptr %27, align 8, !tbaa !116
  call void @llvm.lifetime.start.p0(i64 24, ptr %8) #10
  call void @llvm.memcpy.p0.p0.i64(ptr align 8 %8, ptr align 8 @__const.scanLaterZset.defragfns, i64 24, i1 false)
  %29 = load ptr, ptr %6, align 8, !tbaa !53
  %30 = load ptr, ptr %4, align 8, !tbaa !111
  %31 = load i64, ptr %30, align 8, !tbaa !39
  %32 = call i64 @dictScanDefrag(ptr noundef %29, i64 noundef %31, ptr noundef @scanLaterZsetCallback, ptr noundef %8, ptr noundef %7)
  %33 = load ptr, ptr %4, align 8, !tbaa !111
  store i64 %32, ptr %33, align 8, !tbaa !39
  call void @llvm.lifetime.end.p0(i64 24, ptr %8) #10
  call void @llvm.lifetime.end.p0(i64 8, ptr %7) #10
  call void @llvm.lifetime.end.p0(i64 8, ptr %6) #10
  call void @llvm.lifetime.end.p0(i64 8, ptr %5) #10
  br label %34

34:                                               ; preds = %20, %19
  ret void
}