; Function Attrs: nounwind uwtable
define dso_local void @scanLaterZset(ptr noundef readonly captures(none) %0, ptr noundef captures(none) %1) local_unnamed_addr #0 {
  %3 = alloca %struct.scanLaterZsetData, align 8
  %4 = alloca %struct.dictDefragFunctions, align 8
  %5 = load i32, ptr %0, align 8
  %6 = and i32 %5, 255
  %or.cond = icmp eq i32 %6, 115
  br i1 %or.cond, label %7, label %13

7:                                                ; preds = %2
  %8 = getelementptr inbounds nuw i8, ptr %0, i64 8
  %9 = load ptr, ptr %8, align 8, !tbaa !41
  %10 = load ptr, ptr %9, align 8, !tbaa !64
  call void @llvm.lifetime.start.p0(i64 8, ptr nonnull %3) #10
  store ptr %9, ptr %3, align 8, !tbaa !97
  call void @llvm.lifetime.start.p0(i64 24, ptr nonnull %4) #10
  call void @llvm.memcpy.p0.p0.i64(ptr noundef nonnull align 8 dereferenceable(24) %4, ptr noundef nonnull align 8 dereferenceable(24) @__const.activeDefragCycle.defragfns, i64 24, i1 false)
  %11 = load i64, ptr %1, align 8, !tbaa !94
  %12 = call i64 @dictScanDefrag(ptr noundef %10, i64 noundef %11, ptr noundef nonnull @scanLaterZsetCallback, ptr noundef nonnull %4, ptr noundef nonnull %3) #10
  store i64 %12, ptr %1, align 8, !tbaa !94
  call void @llvm.lifetime.end.p0(i64 24, ptr nonnull %4) #10
  call void @llvm.lifetime.end.p0(i64 8, ptr nonnull %3) #10
  br label %13

13:                                               ; preds = %2, %7
  ret void
}